target datalayout = "e-m:e-p270:32:32-p271:32:32-p272:64:64-i64:64-i128:128-f80:128-n8:16:32:64-S128"
target triple = "x86_64-pc-linux-gnu"

%struct.job_record = type { i32, ptr, ptr, ptr, ptr, i16, i32, i32, i32, ptr, i32, ptr, ptr, i16, ptr, double, i64, ptr, ptr, ptr, ptr, ptr, ptr, i32, ptr, i32, i64, i64, i32, i32, ptr, i16, i64, i64, i8, i32, ptr, ptr, ptr, ptr, ptr, ptr, ptr, ptr, i32, ptr, ptr, i32, ptr, i32, ptr, i32, ptr, i32, ptr, ptr, ptr, ptr, ptr, ptr, i32, i16, i64, ptr, ptr, ptr, ptr, %struct.acct_policy_limit_set_t, i16, ptr, ptr, ptr, ptr, ptr, i32, ptr, ptr, ptr, ptr, ptr, i32, i32, ptr, ptr, ptr, i16, ptr, ptr, i8, ptr, ptr, i64, i64, i8, i32, i32, i8, i32, ptr, i32, i64, i32, ptr, ptr, ptr, i8, i16, i64, i32, ptr, ptr, ptr, ptr, ptr, i16, i32, ptr, ptr, ptr, ptr, i32, ptr, i32, i16, i64, ptr, i32, i32, ptr, i64, ptr, ptr, i64, i32, i32, i64, i32, i32, ptr, ptr, ptr, ptr, ptr, ptr, ptr, ptr, ptr, ptr, ptr, ptr, i32, ptr, i16, i16, i16, i16, ptr, i32, i32, i8, i64 }
%struct.acct_policy_limit_set_t = type { i16, i16, ptr }
%struct.part_record = type { i32, ptr, ptr, ptr, ptr, ptr, ptr, i32, ptr, ptr, ptr, ptr, ptr, i32, i64, i32, ptr, ptr, ptr, ptr, ptr, i32, i32, ptr, i32, i32, i64, i32, i32, i16, i32, i32, i32, i32, ptr, ptr, ptr, ptr, ptr, double, i16, i16, i16, i16, ptr, ptr, i16, i16, i32, i16, i32, i32, i32, i32, i16, ptr, ptr, ptr }
%struct.slurmdb_assoc_rec = type { ptr, ptr, ptr, ptr, ptr, ptr, ptr, i32, i32, i32, i32, i32, ptr, ptr, ptr, ptr, ptr, ptr, i32, i32, i16, ptr, ptr, i32, i32, i32, ptr, ptr, ptr, ptr, ptr, ptr, ptr, ptr, i32, i32, ptr, i32, ptr, i32, ptr, i32, i32, ptr, ptr, ptr }

@accounting_enforce = external global i16, align 2
@acct_db_conn = external global ptr, align 8
@.str.48 = private unnamed_addr constant [26 x i8] c"Invalid assoc_ptr for %pJ\00", align 1
@.str.49 = private unnamed_addr constant [48 x i8] c"%s: invalid account or partition for uid=%u %pJ\00", align 1
@__func__._valid_job_assoc = private unnamed_addr constant [17 x i8] c"_valid_job_assoc\00", align 1

; Function Attrs: nounwind uwtable
define internal zeroext i1 @_valid_job_assoc(ptr noundef %0) #0 {
  %2 = alloca i1, align 1
  %3 = alloca ptr, align 8
  %4 = alloca %struct.slurmdb_assoc_rec, align 8
  %5 = alloca i32, align 4
  store ptr %0, ptr %3, align 8
  call void @llvm.lifetime.start.p0(i64 320, ptr %4) #8
  %6 = load ptr, ptr %3, align 8
  %7 = getelementptr inbounds nuw %struct.job_record, ptr %6, i32 0, i32 11
  %8 = load ptr, ptr %7, align 8
  %9 = icmp eq ptr %8, null
  br i1 %9, label %30, label %10

10:                                               ; preds = %1
  %11 = load ptr, ptr %3, align 8
  %12 = getelementptr inbounds nuw %struct.job_record, ptr %11, i32 0, i32 11
  %13 = load ptr, ptr %12, align 8
  %14 = getelementptr inbounds nuw %struct.slurmdb_assoc_rec, ptr %13, i32 0, i32 19
  %15 = load i32, ptr %14, align 4
  %16 = load ptr, ptr %3, align 8
  %17 = getelementptr inbounds nuw %struct.job_record, ptr %16, i32 0, i32 10
  %18 = load i32, ptr %17, align 8
  %19 = icmp ne i32 %15, %18
  br i1 %19, label %30, label %20

20:                                               ; preds = %10
  %21 = load ptr, ptr %3, align 8
  %22 = getelementptr inbounds nuw %struct.job_record, ptr %21, i32 0, i32 11
  %23 = load ptr, ptr %22, align 8
  %24 = getelementptr inbounds nuw %struct.slurmdb_assoc_rec, ptr %23, i32 0, i32 42
  %25 = load i32, ptr %24, align 4
  %26 = load ptr, ptr %3, align 8
  %27 = getelementptr inbounds nuw %struct.job_record, ptr %26, i32 0, i32 150
  %28 = load i32, ptr %27, align 8
  %29 = icmp ne i32 %25, %28
  br i1 %29, label %30, label %80

30:                                               ; preds = %20, %10, %1
  %31 = load ptr, ptr %3, align 8
  %32 = call i32 (ptr, ...) @error(ptr noundef @.str.48, ptr noundef %31)
  call void @llvm.memset.p0.i64(ptr align 8 %4, i8 0, i64 320, i1 false)
  %33 = load ptr, ptr %3, align 8
  %34 = getelementptr inbounds nuw %struct.job_record, ptr %33, i32 0, i32 1
  %35 = load ptr, ptr %34, align 8
  %36 = getelementptr inbounds nuw %struct.slurmdb_assoc_rec, ptr %4, i32 0, i32 1
  store ptr %35, ptr %36, align 8
  %37 = load ptr, ptr %3, align 8
  %38 = getelementptr inbounds nuw %struct.job_record, ptr %37, i32 0, i32 89
  %39 = load ptr, ptr %38, align 8
  %40 = icmp ne ptr %39, null
  br i1 %40, label %41, label %48

41:                                               ; preds = %30
  %42 = load ptr, ptr %3, align 8
  %43 = getelementptr inbounds nuw %struct.job_record, ptr %42, i32 0, i32 89
  %44 = load ptr, ptr %43, align 8
  %45 = getelementptr inbounds nuw %struct.part_record, ptr %44, i32 0, i32 34
  %46 = load ptr, ptr %45, align 8
  %47 = getelementptr inbounds nuw %struct.slurmdb_assoc_rec, ptr %4, i32 0, i32 38
  store ptr %46, ptr %47, align 8
  br label %48

48:                                               ; preds = %41, %30
  %49 = load ptr, ptr %3, align 8
  %50 = getelementptr inbounds nuw %struct.job_record, ptr %49, i32 0, i32 150
  %51 = load i32, ptr %50, align 8
  %52 = getelementptr inbounds nuw %struct.slurmdb_assoc_rec, ptr %4, i32 0, i32 42
  store i32 %51, ptr %52, align 4
  %53 = load ptr, ptr @acct_db_conn, align 8
  %54 = load i16, ptr @accounting_enforce, align 2
  %55 = zext i16 %54 to i32
  %56 = load ptr, ptr %3, align 8
  %57 = getelementptr inbounds nuw %struct.job_record, ptr %56, i32 0, i32 11
  %58 = call i32 @assoc_mgr_fill_in_assoc(ptr noundef %53, ptr noundef %4, i32 noundef %55, ptr noundef %57, i1 noundef zeroext false)
  %59 = icmp ne i32 %58, 0
  br i1 %59, label %60, label %75

60:                                               ; preds = %48
  br label %61

61:                                               ; preds = %60
  br label %62

62:                                               ; preds = %61
  %63 = call i32 @get_log_level()
  %64 = icmp sge i32 %63, 3
  br i1 %64, label %65, label %70

65:                                               ; preds = %62
  %66 = load ptr, ptr %3, align 8
  %67 = getelementptr inbounds nuw %struct.job_record, ptr %66, i32 0, i32 150
  %68 = load i32, ptr %67, align 8
  %69 = load ptr, ptr %3, align 8
  call void (i32, ptr, ...) @log_var(i32 noundef 3, ptr noundef @.str.49, ptr noundef @__func__._valid_job_assoc, i32 noundef %68, ptr noundef %69)
  br label %70

70:                                               ; preds = %65, %62
  br label %71

71:                                               ; preds = %70
  br label %72

72:                                               ; preds = %71
  br label %73

73:                                               ; preds = %72
  br label %74

74:                                               ; preds = %73
  store i1 false, ptr %2, align 1
  store i32 1, ptr %5, align 4
  br label %81

75:                                               ; preds = %48
  %76 = getelementptr inbounds nuw %struct.slurmdb_assoc_rec, ptr %4, i32 0, i32 19
  %77 = load i32, ptr %76, align 4
  %78 = load ptr, ptr %3, align 8
  %79 = getelementptr inbounds nuw %struct.job_record, ptr %78, i32 0, i32 10
  store i32 %77, ptr %79, align 8
  br label %80

80:                                               ; preds = %75, %20
  store i1 true, ptr %2, align 1
  store i32 1, ptr %5, align 4
  br label %81

81:                                               ; preds = %80, %74
  call void @llvm.lifetime.end.p0(i64 320, ptr %4) #8
  %82 = load i1, ptr %2, align 1
  ret i1 %82
}