; Function Attrs: nounwind uwtable
define internal fastcc noundef zeroext i1 @_valid_job_assoc(ptr noundef %0) unnamed_addr #0 {
  %2 = alloca %struct.slurmdb_assoc_rec, align 8
  call void @llvm.lifetime.start.p0(i64 320, ptr nonnull %2) #15
  %3 = getelementptr inbounds nuw i8, ptr %0, i64 72
  %4 = load ptr, ptr %3, align 8
  %5 = icmp eq ptr %4, null
  br i1 %5, label %16, label %6

6:                                                ; preds = %1
  %7 = getelementptr inbounds nuw i8, ptr %4, i64 132
  %8 = load i32, ptr %7, align 4
  %9 = getelementptr inbounds nuw i8, ptr %0, i64 64
  %10 = load i32, ptr %9, align 8
  %.not = icmp eq i32 %8, %10
  br i1 %.not, label %11, label %16

11:                                               ; preds = %6
  %12 = getelementptr inbounds nuw i8, ptr %4, i64 292
  %13 = load i32, ptr %12, align 4
  %14 = getelementptr inbounds nuw i8, ptr %0, i64 1096
  %15 = load i32, ptr %14, align 8
  %.not17 = icmp eq i32 %13, %15
  br i1 %.not17, label %44, label %16

16:                                               ; preds = %11, %6, %1
  %17 = tail call i32 (ptr, ...) @error(ptr noundef nonnull @.str.48, ptr noundef nonnull %0) #15
  call void @llvm.memset.p0.i64(ptr noundef nonnull align 8 dereferenceable(320) %2, i8 0, i64 320, i1 false)
  %18 = getelementptr inbounds nuw i8, ptr %0, i64 8
  %19 = load ptr, ptr %18, align 8
  %20 = getelementptr inbounds nuw i8, ptr %2, i64 8
  store ptr %19, ptr %20, align 8
  %21 = getelementptr inbounds nuw i8, ptr %0, i64 672
  %22 = load ptr, ptr %21, align 8
  %.not18 = icmp eq ptr %22, null
  br i1 %.not18, label %27, label %23

23:                                               ; preds = %16
  %24 = getelementptr inbounds nuw i8, ptr %22, i64 232
  %25 = load ptr, ptr %24, align 8
  %26 = getelementptr inbounds nuw i8, ptr %2, i64 264
  store ptr %25, ptr %26, align 8
  br label %27

27:                                               ; preds = %23, %16
  %28 = getelementptr inbounds nuw i8, ptr %0, i64 1096
  %29 = load i32, ptr %28, align 8
  %30 = getelementptr inbounds nuw i8, ptr %2, i64 292
  store i32 %29, ptr %30, align 4
  %31 = load ptr, ptr @acct_db_conn, align 8
  %32 = load i16, ptr @accounting_enforce, align 2
  %33 = zext i16 %32 to i32
  %34 = call i32 @assoc_mgr_fill_in_assoc(ptr noundef %31, ptr noundef nonnull %2, i32 noundef %33, ptr noundef nonnull %3, i1 noundef zeroext false) #15
  %.not19 = icmp eq i32 %34, 0
  br i1 %.not19, label %40, label %35

35:                                               ; preds = %27
  %36 = call i32 @get_log_level() #15
  %37 = icmp sgt i32 %36, 2
  br i1 %37, label %38, label %44

38:                                               ; preds = %35
  %39 = load i32, ptr %28, align 8
  call void (i32, ptr, ...) @log_var(i32 noundef 3, ptr noundef nonnull @.str.49, ptr noundef nonnull @__func__._valid_job_assoc, i32 noundef %39, ptr noundef nonnull %0) #15
  br label %44

40:                                               ; preds = %27
  %41 = getelementptr inbounds nuw i8, ptr %2, i64 132
  %42 = load i32, ptr %41, align 4
  %43 = getelementptr inbounds nuw i8, ptr %0, i64 64
  store i32 %42, ptr %43, align 8
  br label %44

44:                                               ; preds = %11, %40, %35, %38
  %.0 = phi i1 [ false, %38 ], [ false, %35 ], [ true, %40 ], [ true, %11 ]
  call void @llvm.lifetime.end.p0(i64 320, ptr nonnull %2) #15
  ret i1 %.0
}